target datalayout = "e-m:e-p270:32:32-p271:32:32-p272:64:64-i64:64-i128:128-f80:128-n8:16:32:64-S128"
target triple = "x86_64-unknown-linux-gnu"

%"class.proxygen::ResponseHandler" = type { ptr, ptr, ptr }

@_ZN8proxygen21RequestHandlerAdaptorC1EPNS_14RequestHandlerE = unnamed_addr alias void (ptr, ptr), ptr @_ZN8proxygen21RequestHandlerAdaptorC2EPNS_14RequestHandlerE

; Function Attrs: mustprogress nounwind uwtable
define linkonce_odr noundef ptr @_ZNK8proxygen15ResponseHandler14getTransactionEv(ptr noundef nonnull align 8 dereferenceable(24) %this) #5 comdat align 2 {
entry:
  %this.addr = alloca ptr, align 8
  store ptr %this, ptr %this.addr, align 8
  %this1 = load ptr, ptr %this.addr, align 8
  %txn_ = getelementptr inbounds %"class.proxygen::ResponseHandler", ptr %this1, i32 0, i32 2
  %0 = load ptr, ptr %txn_, align 8
  ret ptr %0
}

; Function Attrs: mustprogress nounwind uwtable
define noundef ptr @_ZN8proxygen21RequestHandlerAdaptor12newExMessageEPNS_16ExMessageHandlerEb(ptr noundef nonnull align 8 dereferenceable(36) %this, ptr noundef %exHandler, i1 noundef zeroext %unidirectional) unnamed_addr #5 align 2 personality ptr @__gxx_personality_v0 {
entry:
  %this.addr = alloca ptr, align 8
  %exHandler.addr = alloca ptr, align 8
  %unidirectional.addr = alloca i8, align 1
  %handler = alloca ptr, align 8
  store ptr %this, ptr %this.addr, align 8
  store ptr %exHandler, ptr %exHandler.addr, align 8
  %frombool = zext i1 %unidirectional to i8
  store i8 %frombool, ptr %unidirectional.addr, align 1
  %this1 = load ptr, ptr %this.addr, align 8
  %call = invoke noalias noundef nonnull ptr @_Znwm(i64 noundef 40) #20
          to label %invoke.cont unwind label %terminate.lpad

invoke.cont:                                      ; preds = %entry
  %0 = load ptr, ptr %exHandler.addr, align 8
  invoke void @_ZN8proxygen21RequestHandlerAdaptorC1EPNS_14RequestHandlerE(ptr noundef nonnull align 8 dereferenceable(36) %call, ptr noundef %0)
          to label %invoke.cont2 unwind label %terminate.lpad

invoke.cont2:                                     ; preds = %invoke.cont
  store ptr %call, ptr %handler, align 8
  %add.ptr = getelementptr inbounds i8, ptr %this1, i64 8
  %call3 = call noundef ptr @_ZNK8proxygen15ResponseHandler14getTransactionEv(ptr noundef nonnull align 8 dereferenceable(24) %add.ptr) #3
  %1 = load ptr, ptr %handler, align 8
  %2 = load i8, ptr %unidirectional.addr, align 1
  %tobool = trunc i8 %2 to i1
  %vtable = load ptr, ptr %call3, align 8
  %vfn = getelementptr inbounds ptr, ptr %vtable, i64 23
  %3 = load ptr, ptr %vfn, align 8
  %call5 = invoke noundef ptr %3(ptr noundef nonnull align 8 dereferenceable(912) %call3, ptr noundef %1, i1 noundef zeroext %tobool)
          to label %invoke.cont4 unwind label %terminate.lpad

invoke.cont4:                                     ; preds = %invoke.cont2
  %4 = load ptr, ptr %handler, align 8
  %5 = icmp eq ptr %4, null
  br i1 %5, label %cast.end, label %cast.notnull

cast.notnull:                                     ; preds = %invoke.cont4
  %add.ptr6 = getelementptr inbounds i8, ptr %4, i64 8
  br label %cast.end

cast.end:                                         ; preds = %cast.notnull, %invoke.cont4
  %cast.result = phi ptr [ %add.ptr6, %cast.notnull ], [ null, %invoke.cont4 ]
  ret ptr %cast.result

terminate.lpad:                                   ; preds = %invoke.cont2, %invoke.cont, %entry
  %6 = landingpad { ptr, i32 }
          catch ptr null
  %7 = extractvalue { ptr, i32 } %6, 0
  call void @__clang_call_terminate(ptr %7) #18
  unreachable
}