; Function Attrs: mustprogress nounwind uwtable
define noundef ptr @_ZN8proxygen21RequestHandlerAdaptor12newExMessageEPNS_16ExMessageHandlerEb(ptr nocapture noundef nonnull readonly align 8 dereferenceable(36) %this, ptr noundef %exHandler, i1 noundef zeroext %unidirectional) unnamed_addr #4 align 2 personality ptr @__gxx_personality_v0 {
entry:
  %call = invoke noalias noundef nonnull dereferenceable(40) ptr @_Znwm(i64 noundef 40) #23
          to label %invoke.cont unwind label %terminate.lpad

invoke.cont:                                      ; preds = %entry
  invoke void @_ZN8proxygen21RequestHandlerAdaptorC1EPNS_14RequestHandlerE(ptr noundef nonnull align 8 dereferenceable(36) %call, ptr noundef %exHandler)
          to label %invoke.cont2 unwind label %terminate.lpad

invoke.cont2:                                     ; preds = %invoke.cont
  %txn_.i = getelementptr inbounds i8, ptr %this, i64 24
  %0 = load ptr, ptr %txn_.i, align 8
  %vtable = load ptr, ptr %0, align 8
  %vfn = getelementptr inbounds i8, ptr %vtable, i64 184
  %1 = load ptr, ptr %vfn, align 8
  %call5 = invoke noundef ptr %1(ptr noundef nonnull align 8 dereferenceable(912) %0, ptr noundef nonnull %call, i1 noundef zeroext %unidirectional)
          to label %invoke.cont4 unwind label %terminate.lpad

invoke.cont4:                                     ; preds = %invoke.cont2
  %add.ptr6 = getelementptr inbounds i8, ptr %call, i64 8
  ret ptr %add.ptr6

terminate.lpad:                                   ; preds = %invoke.cont2, %invoke.cont, %entry
  %2 = landingpad { ptr, i32 }
          catch ptr null
  %3 = extractvalue { ptr, i32 } %2, 0
  tail call void @__clang_call_terminate(ptr %3) #22
  unreachable
}